; Function Attrs: nounwind uwtable
define void @Amap_CreateRulesTwo(ptr noundef %0, ptr noundef captures(none) %1, ptr noundef readonly captures(none) %2, ptr noundef readonly captures(none) %3, i32 noundef %4) local_unnamed_addr #0 {
  %6 = getelementptr i8, ptr %2, i64 4
  %.val2530 = load i32, ptr %6, align 4
  %7 = icmp sgt i32 %.val2530, 0
  br i1 %7, label %.lr.ph32, label %.critedge

.lr.ph32:                                         ; preds = %5
  %8 = getelementptr i8, ptr %2, i64 8
  %9 = getelementptr i8, ptr %3, i64 4
  %10 = getelementptr i8, ptr %3, i64 8
  %11 = getelementptr inbounds nuw i8, ptr %1, i64 4
  %12 = getelementptr inbounds nuw i8, ptr %1, i64 8
  %13 = load i32, ptr %9, align 4
  %14 = icmp sgt i32 %13, 0
  br i1 %14, label %.lr.ph32.split, label %.critedge

.lr.ph32.split:                                   ; preds = %.lr.ph32, %.critedge2
  %.val2540 = phi i32 [ %.val25, %.critedge2 ], [ %.val2530, %.lr.ph32 ]
  %.val28 = phi i32 [ %.val2839, %.critedge2 ], [ %13, %.lr.ph32 ]
  %indvars.iv35 = phi i64 [ %indvars.iv.next36, %.critedge2 ], [ 0, %.lr.ph32 ]
  %.val27 = load ptr, ptr %8, align 8
  %15 = getelementptr inbounds nuw i32, ptr %.val27, i64 %indvars.iv35
  %16 = load i32, ptr %15, align 4
  %17 = icmp sgt i32 %.val28, 0
  br i1 %17, label %.lr.ph, label %.critedge2

.lr.ph:                                           ; preds = %.lr.ph32.split, %Vec_IntPushUnique.exit
  %indvars.iv = phi i64 [ %indvars.iv.next, %Vec_IntPushUnique.exit ], [ 0, %.lr.ph32.split ]
  %.val26 = load ptr, ptr %10, align 8
  %18 = getelementptr inbounds nuw i32, ptr %.val26, i64 %indvars.iv
  %19 = load i32, ptr %18, align 4
  %20 = tail call i32 @Amap_LibFindNode(ptr noundef %0, i32 noundef %16, i32 noundef %19, i32 noundef %4) #11
  %21 = icmp eq i32 %20, -1
  br i1 %21, label %22, label %24

22:                                               ; preds = %.lr.ph
  %23 = tail call i32 @Amap_LibCreateNode(ptr noundef %0, i32 noundef %16, i32 noundef %19, i32 noundef %4) #11
  br label %24

24:                                               ; preds = %22, %.lr.ph
  %.023 = phi i32 [ %23, %22 ], [ %20, %.lr.ph ]
  %25 = shl nsw i32 %.023, 1
  %26 = load i32, ptr %11, align 4
  %27 = icmp sgt i32 %26, 0
  br i1 %27, label %.lr.ph.i, label %._crit_edge.i

.lr.ph.i:                                         ; preds = %24
  %28 = load ptr, ptr %12, align 8
  %wide.trip.count.i = zext nneg i32 %26 to i64
  br label %30

29:                                               ; preds = %30
  %indvars.iv.next.i = add nuw nsw i64 %indvars.iv.i, 1
  %exitcond.not.i = icmp eq i64 %indvars.iv.next.i, %wide.trip.count.i
  br i1 %exitcond.not.i, label %._crit_edge.i, label %30, !llvm.loop !9

30:                                               ; preds = %29, %.lr.ph.i
  %indvars.iv.i = phi i64 [ 0, %.lr.ph.i ], [ %indvars.iv.next.i, %29 ]
  %31 = getelementptr inbounds nuw i32, ptr %28, i64 %indvars.iv.i
  %32 = load i32, ptr %31, align 4
  %33 = icmp eq i32 %32, %25
  br i1 %33, label %Vec_IntPushUnique.exit, label %29

._crit_edge.i:                                    ; preds = %29, %24
  %34 = load i32, ptr %1, align 8
  %35 = icmp eq i32 %26, %34
  br i1 %35, label %36, label %.Vec_IntGrow.exit10_crit_edge.i.i

.Vec_IntGrow.exit10_crit_edge.i.i:                ; preds = %._crit_edge.i
  %.pre.i.i = load ptr, ptr %12, align 8
  br label %Vec_IntPush.exit.i

36:                                               ; preds = %._crit_edge.i
  %37 = icmp slt i32 %26, 16
  br i1 %37, label %38, label %45

38:                                               ; preds = %36
  %39 = load ptr, ptr %12, align 8
  %.not9.i.i.i = icmp eq ptr %39, null
  br i1 %.not9.i.i.i, label %42, label %40

40:                                               ; preds = %38
  %41 = tail call dereferenceable_or_null(64) ptr @realloc(ptr noundef nonnull %39, i64 noundef 64) #12
  br label %Vec_IntGrow.exit.i.i

42:                                               ; preds = %38
  %43 = tail call noalias dereferenceable_or_null(64) ptr @malloc(i64 noundef 64) #10
  br label %Vec_IntGrow.exit.i.i

Vec_IntGrow.exit.i.i:                             ; preds = %42, %40
  %44 = phi ptr [ %41, %40 ], [ %43, %42 ]
  store ptr %44, ptr %12, align 8
  store i32 16, ptr %1, align 8
  br label %Vec_IntPush.exit.i

45:                                               ; preds = %36
  %46 = shl nuw nsw i32 %26, 1
  %47 = load ptr, ptr %12, align 8
  %.not9.i9.i.i = icmp eq ptr %47, null
  %48 = zext nneg i32 %46 to i64
  %49 = shl nuw nsw i64 %48, 2
  br i1 %.not9.i9.i.i, label %52, label %50

50:                                               ; preds = %45
  %51 = tail call ptr @realloc(ptr noundef nonnull %47, i64 noundef %49) #12
  br label %54

52:                                               ; preds = %45
  %53 = tail call noalias ptr @malloc(i64 noundef %49) #10
  br label %54

54:                                               ; preds = %52, %50
  %55 = phi ptr [ %51, %50 ], [ %53, %52 ]
  store ptr %55, ptr %12, align 8
  store i32 %46, ptr %1, align 8
  br label %Vec_IntPush.exit.i

Vec_IntPush.exit.i:                               ; preds = %54, %Vec_IntGrow.exit.i.i, %.Vec_IntGrow.exit10_crit_edge.i.i
  %56 = phi ptr [ %.pre.i.i, %.Vec_IntGrow.exit10_crit_edge.i.i ], [ %55, %54 ], [ %44, %Vec_IntGrow.exit.i.i ]
  %57 = load i32, ptr %11, align 4
  %58 = add nsw i32 %57, 1
  store i32 %58, ptr %11, align 4
  %59 = sext i32 %57 to i64
  %60 = getelementptr inbounds i32, ptr %56, i64 %59
  store i32 %25, ptr %60, align 4
  br label %Vec_IntPushUnique.exit

Vec_IntPushUnique.exit:                           ; preds = %30, %Vec_IntPush.exit.i
  %indvars.iv.next = add nuw nsw i64 %indvars.iv, 1
  %.val = load i32, ptr %9, align 4
  %61 = sext i32 %.val to i64
  %62 = icmp slt i64 %indvars.iv.next, %61
  br i1 %62, label %.lr.ph, label %.critedge2.loopexit, !llvm.loop !10

.critedge2.loopexit:                              ; preds = %Vec_IntPushUnique.exit
  %.val25.pre = load i32, ptr %6, align 4
  br label %.critedge2

.critedge2:                                       ; preds = %.critedge2.loopexit, %.lr.ph32.split
  %.val25 = phi i32 [ %.val25.pre, %.critedge2.loopexit ], [ %.val2540, %.lr.ph32.split ]
  %.val2839 = phi i32 [ %.val, %.critedge2.loopexit ], [ %.val28, %.lr.ph32.split ]
  %indvars.iv.next36 = add nuw nsw i64 %indvars.iv35, 1
  %63 = sext i32 %.val25 to i64
  %64 = icmp slt i64 %indvars.iv.next36, %63
  br i1 %64, label %.lr.ph32.split, label %.critedge, !llvm.loop !11

.critedge:                                        ; preds = %.critedge2, %.lr.ph32, %5
  ret void
}